; Function Attrs: mustprogress uwtable
define noundef zeroext i1 @_ZNK6casadi10ConstantDM8is_equalEPKNS_6MXNodeEx(ptr noundef nonnull align 8 dereferenceable(104) %0, ptr noundef %1, i64 %2) unnamed_addr #3 align 2 {
  %4 = icmp eq ptr %1, null
  br i1 %4, label %_ZSt5equalIN9__gnu_cxx17__normal_iteratorIPKdSt6vectorIdSaIdEEEES7_EbT_S8_T0_.exit, label %5

5:                                                ; preds = %3
  %6 = tail call ptr @__dynamic_cast(ptr nonnull %1, ptr nonnull @_ZTIN6casadi6MXNodeE, ptr nonnull @_ZTIN6casadi10ConstantDME, i64 0) #25
  %7 = icmp eq ptr %6, null
  br i1 %7, label %_ZSt5equalIN9__gnu_cxx17__normal_iteratorIPKdSt6vectorIdSaIdEEEES7_EbT_S8_T0_.exit, label %8

8:                                                ; preds = %5
  %9 = getelementptr inbounds i8, ptr %0, i64 56
  %10 = getelementptr inbounds i8, ptr %1, i64 56
  %11 = tail call noundef zeroext i1 @_ZNK6casadi8Sparsity8is_equalERKS0_(ptr noundef nonnull align 8 dereferenceable(8) %9, ptr noundef nonnull align 8 dereferenceable(8) %10)
  br i1 %11, label %12, label %_ZSt5equalIN9__gnu_cxx17__normal_iteratorIPKdSt6vectorIdSaIdEEEES7_EbT_S8_T0_.exit

12:                                               ; preds = %8
  %13 = getelementptr inbounds i8, ptr %0, i64 64
  %14 = tail call noundef ptr @_ZNK6casadi6MatrixIdEptEv(ptr noundef nonnull align 8 dereferenceable(40) %13)
  %15 = load ptr, ptr %14, align 8
  %16 = tail call noundef ptr @_ZNK6casadi6MatrixIdEptEv(ptr noundef nonnull align 8 dereferenceable(40) %13)
  %17 = getelementptr inbounds i8, ptr %16, i64 8
  %18 = load ptr, ptr %17, align 8
  %19 = getelementptr inbounds i8, ptr %6, i64 64
  %20 = tail call noundef ptr @_ZNK6casadi6MatrixIdEptEv(ptr noundef nonnull align 8 dereferenceable(40) %19)
  %.not9.i.i.i.i = icmp eq ptr %15, %18
  br i1 %.not9.i.i.i.i, label %_ZSt5equalIN9__gnu_cxx17__normal_iteratorIPKdSt6vectorIdSaIdEEEES7_EbT_S8_T0_.exit, label %.lr.ph.i.i.i.i.preheader

.lr.ph.i.i.i.i.preheader:                         ; preds = %12
  %21 = load ptr, ptr %20, align 8
  br label %.lr.ph.i.i.i.i

.lr.ph.i.i.i.i:                                   ; preds = %.lr.ph.i.i.i.i, %.lr.ph.i.i.i.i.preheader
  %.011.i.i.i.i = phi ptr [ %21, %.lr.ph.i.i.i.i.preheader ], [ %26, %.lr.ph.i.i.i.i ]
  %.0810.i.i.i.i = phi ptr [ %15, %.lr.ph.i.i.i.i.preheader ], [ %25, %.lr.ph.i.i.i.i ]
  %22 = load double, ptr %.0810.i.i.i.i, align 8
  %23 = load double, ptr %.011.i.i.i.i, align 8
  %24 = fcmp oeq double %22, %23
  %25 = getelementptr inbounds i8, ptr %.0810.i.i.i.i, i64 8
  %26 = getelementptr inbounds i8, ptr %.011.i.i.i.i, i64 8
  %.not.i.i.i.i = icmp ne ptr %25, %18
  %or.cond.not = select i1 %24, i1 %.not.i.i.i.i, i1 false
  br i1 %or.cond.not, label %.lr.ph.i.i.i.i, label %_ZSt5equalIN9__gnu_cxx17__normal_iteratorIPKdSt6vectorIdSaIdEEEES7_EbT_S8_T0_.exit, !llvm.loop !17

_ZSt5equalIN9__gnu_cxx17__normal_iteratorIPKdSt6vectorIdSaIdEEEES7_EbT_S8_T0_.exit: ; preds = %.lr.ph.i.i.i.i, %3, %12, %8, %5
  %.0 = phi i1 [ false, %5 ], [ false, %8 ], [ true, %12 ], [ false, %3 ], [ %24, %.lr.ph.i.i.i.i ]
  ret i1 %.0
}